target datalayout = "e-m:e-p270:32:32-p271:32:32-p272:64:64-i64:64-i128:128-f80:128-n8:16:32:64-S128"
target triple = "x86_64-pc-linux-gnu"

%struct.Gia_Man_t_ = type { ptr, ptr, i32, i32, i32, i32, ptr, ptr, i32, i32, i32, ptr, ptr, %struct.Vec_Int_t_, %struct.Vec_Int_t_, i32, i32, i32, %struct.Vec_Int_t_, ptr, ptr, ptr, i32, i32, i32, i32, ptr, ptr, ptr, ptr, ptr, i32, i32, ptr, i32, ptr, ptr, ptr, ptr, ptr, ptr, ptr, ptr, ptr, ptr, ptr, ptr, ptr, ptr, ptr, ptr, ptr, ptr, %struct.Vec_Int_t_, %struct.Vec_Int_t_, ptr, ptr, ptr, ptr, ptr, ptr, ptr, ptr, ptr, ptr, ptr, ptr, ptr, ptr, ptr, ptr, ptr, ptr, ptr, ptr, ptr, i32, float, float, ptr, ptr, i32, ptr, ptr, ptr, ptr, ptr, ptr, ptr, ptr, ptr, ptr, ptr, ptr, ptr, ptr, ptr, i64, i64, ptr, ptr, i32, i32, i32, i32, i32, i32, i32, i32, i32, i32, i32, i32, ptr, ptr, ptr, ptr, ptr, ptr, ptr, ptr, i32, i32, i32, ptr, i32, i32, ptr, ptr, ptr, ptr, ptr, ptr, i32, i32, ptr, %struct.Vec_Int_t_, %struct.Vec_Int_t_, %struct.Vec_Int_t_, ptr, ptr, ptr, i32, i32, i32, i32, ptr, ptr, ptr, ptr, ptr }
%struct.Vec_Int_t_ = type { i32, i32, ptr }
%struct.Gia_Obj_t_ = type <{ i64, i32 }>

; Function Attrs: inlinehint nounwind uwtable
define internal i32 @Gia_ObjFaninC1(ptr noundef %0) #2 {
  %2 = alloca ptr, align 8
  store ptr %0, ptr %2, align 8, !tbaa !14
  %3 = load ptr, ptr %2, align 8, !tbaa !14
  %4 = load i64, ptr %3, align 4
  %5 = lshr i64 %4, 61
  %6 = and i64 %5, 1
  %7 = trunc i64 %6 to i32
  ret i32 %7
}

; Function Attrs: inlinehint nounwind uwtable
define internal i32 @Gia_ObjFaninC0(ptr noundef %0) #2 {
  %2 = alloca ptr, align 8
  store ptr %0, ptr %2, align 8, !tbaa !14
  %3 = load ptr, ptr %2, align 8, !tbaa !14
  %4 = load i64, ptr %3, align 4
  %5 = lshr i64 %4, 29
  %6 = and i64 %5, 1
  %7 = trunc i64 %6 to i32
  ret i32 %7
}

; Function Attrs: inlinehint nounwind uwtable
define internal i32 @Gia_ObjFaninId1(ptr noundef %0, i32 noundef %1) #2 {
  %3 = alloca ptr, align 8
  %4 = alloca i32, align 4
  store ptr %0, ptr %3, align 8, !tbaa !14
  store i32 %1, ptr %4, align 4, !tbaa !12
  %5 = load i32, ptr %4, align 4, !tbaa !12
  %6 = load ptr, ptr %3, align 8, !tbaa !14
  %7 = load i64, ptr %6, align 4
  %8 = lshr i64 %7, 32
  %9 = and i64 %8, 536870911
  %10 = trunc i64 %9 to i32
  %11 = sub nsw i32 %5, %10
  ret i32 %11
}

; Function Attrs: inlinehint nounwind uwtable
define internal i32 @Gia_ObjFaninId0(ptr noundef %0, i32 noundef %1) #2 {
  %3 = alloca ptr, align 8
  %4 = alloca i32, align 4
  store ptr %0, ptr %3, align 8, !tbaa !14
  store i32 %1, ptr %4, align 4, !tbaa !12
  %5 = load i32, ptr %4, align 4, !tbaa !12
  %6 = load ptr, ptr %3, align 8, !tbaa !14
  %7 = load i64, ptr %6, align 4
  %8 = and i64 %7, 536870911
  %9 = trunc i64 %8 to i32
  %10 = sub nsw i32 %5, %9
  ret i32 %10
}

; Function Attrs: inlinehint nounwind uwtable
define internal i32 @Gia_ObjIsCi(ptr noundef %0) #2 {
  %2 = alloca ptr, align 8
  store ptr %0, ptr %2, align 8, !tbaa !14
  %3 = load ptr, ptr %2, align 8, !tbaa !14
  %4 = load i64, ptr %3, align 4
  %5 = lshr i64 %4, 31
  %6 = and i64 %5, 1
  %7 = trunc i64 %6 to i32
  %8 = icmp ne i32 %7, 0
  br i1 %8, label %9, label %15

9:                                                ; preds = %1
  %10 = load ptr, ptr %2, align 8, !tbaa !14
  %11 = load i64, ptr %10, align 4
  %12 = and i64 %11, 536870911
  %13 = trunc i64 %12 to i32
  %14 = icmp eq i32 %13, 536870911
  br label %15

15:                                               ; preds = %9, %1
  %16 = phi i1 [ false, %1 ], [ %14, %9 ]
  %17 = zext i1 %16 to i32
  ret i32 %17
}

; Function Attrs: inlinehint nounwind uwtable
define internal ptr @Gia_ManObj(ptr noundef %0, i32 noundef %1) #2 {
  %3 = alloca ptr, align 8
  %4 = alloca i32, align 4
  store ptr %0, ptr %3, align 8, !tbaa !3
  store i32 %1, ptr %4, align 4, !tbaa !12
  %5 = load ptr, ptr %3, align 8, !tbaa !3
  %6 = getelementptr inbounds nuw %struct.Gia_Man_t_, ptr %5, i32 0, i32 6
  %7 = load ptr, ptr %6, align 8, !tbaa !46
  %8 = load i32, ptr %4, align 4, !tbaa !12
  %9 = sext i32 %8 to i64
  %10 = getelementptr inbounds %struct.Gia_Obj_t_, ptr %7, i64 %9
  ret ptr %10
}

; Function Attrs: nounwind uwtable
define i32 @Gia_ManCheckUnate_rec(ptr noundef %0, i32 noundef %1) #0 {
  %3 = alloca i32, align 4
  %4 = alloca ptr, align 8
  %5 = alloca i32, align 4
  %6 = alloca ptr, align 8
  %7 = alloca i32, align 4
  %8 = alloca i32, align 4
  %9 = alloca i32, align 4
  store ptr %0, ptr %4, align 8, !tbaa !3
  store i32 %1, ptr %5, align 4, !tbaa !12
  call void @llvm.lifetime.start.p0(i64 8, ptr %6) #12
  call void @llvm.lifetime.start.p0(i64 4, ptr %7) #12
  call void @llvm.lifetime.start.p0(i64 4, ptr %8) #12
  %10 = load ptr, ptr %4, align 8, !tbaa !3
  %11 = getelementptr inbounds nuw %struct.Gia_Man_t_, ptr %10, i32 0, i32 24
  %12 = load i32, ptr %11, align 8, !tbaa !49
  %13 = load ptr, ptr %4, align 8, !tbaa !3
  %14 = getelementptr inbounds nuw %struct.Gia_Man_t_, ptr %13, i32 0, i32 80
  %15 = load ptr, ptr %14, align 8, !tbaa !50
  %16 = load i32, ptr %5, align 4, !tbaa !12
  %17 = sext i32 %16 to i64
  %18 = getelementptr inbounds i32, ptr %15, i64 %17
  %19 = load i32, ptr %18, align 4, !tbaa !12
  %20 = sub nsw i32 %12, %19
  %21 = icmp sle i32 %20, 3
  br i1 %21, label %22, label %34

22:                                               ; preds = %2
  %23 = load ptr, ptr %4, align 8, !tbaa !3
  %24 = getelementptr inbounds nuw %struct.Gia_Man_t_, ptr %23, i32 0, i32 24
  %25 = load i32, ptr %24, align 8, !tbaa !49
  %26 = load ptr, ptr %4, align 8, !tbaa !3
  %27 = getelementptr inbounds nuw %struct.Gia_Man_t_, ptr %26, i32 0, i32 80
  %28 = load ptr, ptr %27, align 8, !tbaa !50
  %29 = load i32, ptr %5, align 4, !tbaa !12
  %30 = sext i32 %29 to i64
  %31 = getelementptr inbounds i32, ptr %28, i64 %30
  %32 = load i32, ptr %31, align 4, !tbaa !12
  %33 = sub nsw i32 %25, %32
  store i32 %33, ptr %3, align 4
  store i32 1, ptr %9, align 4
  br label %119

34:                                               ; preds = %2
  %35 = load ptr, ptr %4, align 8, !tbaa !3
  %36 = load i32, ptr %5, align 4, !tbaa !12
  %37 = call ptr @Gia_ManObj(ptr noundef %35, i32 noundef %36)
  store ptr %37, ptr %6, align 8, !tbaa !14
  %38 = load ptr, ptr %4, align 8, !tbaa !3
  %39 = getelementptr inbounds nuw %struct.Gia_Man_t_, ptr %38, i32 0, i32 24
  %40 = load i32, ptr %39, align 8, !tbaa !49
  %41 = sub nsw i32 %40, 3
  %42 = load ptr, ptr %4, align 8, !tbaa !3
  %43 = getelementptr inbounds nuw %struct.Gia_Man_t_, ptr %42, i32 0, i32 80
  %44 = load ptr, ptr %43, align 8, !tbaa !50
  %45 = load i32, ptr %5, align 4, !tbaa !12
  %46 = sext i32 %45 to i64
  %47 = getelementptr inbounds i32, ptr %44, i64 %46
  store i32 %41, ptr %47, align 4, !tbaa !12
  %48 = load ptr, ptr %6, align 8, !tbaa !14
  %49 = call i32 @Gia_ObjIsCi(ptr noundef %48)
  %50 = icmp ne i32 %49, 0
  br i1 %50, label %51, label %52

51:                                               ; preds = %34
  store i32 3, ptr %3, align 4
  store i32 1, ptr %9, align 4
  br label %119

52:                                               ; preds = %34
  %53 = load ptr, ptr %4, align 8, !tbaa !3
  %54 = load ptr, ptr %6, align 8, !tbaa !14
  %55 = load i32, ptr %5, align 4, !tbaa !12
  %56 = call i32 @Gia_ObjFaninId0(ptr noundef %54, i32 noundef %55)
  %57 = call i32 @Gia_ManCheckUnate_rec(ptr noundef %53, i32 noundef %56)
  store i32 %57, ptr %7, align 4, !tbaa !12
  %58 = load ptr, ptr %4, align 8, !tbaa !3
  %59 = load ptr, ptr %6, align 8, !tbaa !14
  %60 = load i32, ptr %5, align 4, !tbaa !12
  %61 = call i32 @Gia_ObjFaninId1(ptr noundef %59, i32 noundef %60)
  %62 = call i32 @Gia_ManCheckUnate_rec(ptr noundef %58, i32 noundef %61)
  store i32 %62, ptr %8, align 4, !tbaa !12
  %63 = load i32, ptr %7, align 4, !tbaa !12
  %64 = icmp eq i32 %63, 1
  br i1 %64, label %68, label %65

65:                                               ; preds = %52
  %66 = load i32, ptr %7, align 4, !tbaa !12
  %67 = icmp eq i32 %66, 2
  br i1 %67, label %68, label %75

68:                                               ; preds = %65, %52
  %69 = load ptr, ptr %6, align 8, !tbaa !14
  %70 = call i32 @Gia_ObjFaninC0(ptr noundef %69)
  %71 = icmp ne i32 %70, 0
  br i1 %71, label %72, label %75

72:                                               ; preds = %68
  %73 = load i32, ptr %7, align 4, !tbaa !12
  %74 = xor i32 %73, 3
  br label %77

75:                                               ; preds = %68, %65
  %76 = load i32, ptr %7, align 4, !tbaa !12
  br label %77

77:                                               ; preds = %75, %72
  %78 = phi i32 [ %74, %72 ], [ %76, %75 ]
  store i32 %78, ptr %7, align 4, !tbaa !12
  %79 = load i32, ptr %8, align 4, !tbaa !12
  %80 = icmp eq i32 %79, 1
  br i1 %80, label %84, label %81

81:                                               ; preds = %77
  %82 = load i32, ptr %8, align 4, !tbaa !12
  %83 = icmp eq i32 %82, 2
  br i1 %83, label %84, label %91

84:                                               ; preds = %81, %77
  %85 = load ptr, ptr %6, align 8, !tbaa !14
  %86 = call i32 @Gia_ObjFaninC1(ptr noundef %85)
  %87 = icmp ne i32 %86, 0
  br i1 %87, label %88, label %91

88:                                               ; preds = %84
  %89 = load i32, ptr %8, align 4, !tbaa !12
  %90 = xor i32 %89, 3
  br label %93

91:                                               ; preds = %84, %81
  %92 = load i32, ptr %8, align 4, !tbaa !12
  br label %93

93:                                               ; preds = %91, %88
  %94 = phi i32 [ %90, %88 ], [ %92, %91 ]
  store i32 %94, ptr %8, align 4, !tbaa !12
  %95 = load ptr, ptr %4, align 8, !tbaa !3
  %96 = getelementptr inbounds nuw %struct.Gia_Man_t_, ptr %95, i32 0, i32 24
  %97 = load i32, ptr %96, align 8, !tbaa !49
  %98 = load i32, ptr %7, align 4, !tbaa !12
  %99 = load i32, ptr %8, align 4, !tbaa !12
  %100 = and i32 %98, %99
  %101 = sub nsw i32 %97, %100
  %102 = load ptr, ptr %4, align 8, !tbaa !3
  %103 = getelementptr inbounds nuw %struct.Gia_Man_t_, ptr %102, i32 0, i32 80
  %104 = load ptr, ptr %103, align 8, !tbaa !50
  %105 = load i32, ptr %5, align 4, !tbaa !12
  %106 = sext i32 %105 to i64
  %107 = getelementptr inbounds i32, ptr %104, i64 %106
  store i32 %101, ptr %107, align 4, !tbaa !12
  %108 = load ptr, ptr %4, align 8, !tbaa !3
  %109 = getelementptr inbounds nuw %struct.Gia_Man_t_, ptr %108, i32 0, i32 24
  %110 = load i32, ptr %109, align 8, !tbaa !49
  %111 = load ptr, ptr %4, align 8, !tbaa !3
  %112 = getelementptr inbounds nuw %struct.Gia_Man_t_, ptr %111, i32 0, i32 80
  %113 = load ptr, ptr %112, align 8, !tbaa !50
  %114 = load i32, ptr %5, align 4, !tbaa !12
  %115 = sext i32 %114 to i64
  %116 = getelementptr inbounds i32, ptr %113, i64 %115
  %117 = load i32, ptr %116, align 4, !tbaa !12
  %118 = sub nsw i32 %110, %117
  store i32 %118, ptr %3, align 4
  store i32 1, ptr %9, align 4
  br label %119

119:                                              ; preds = %93, %51, %22
  call void @llvm.lifetime.end.p0(i64 4, ptr %8) #12
  call void @llvm.lifetime.end.p0(i64 4, ptr %7) #12
  call void @llvm.lifetime.end.p0(i64 8, ptr %6) #12
  %120 = load i32, ptr %3, align 4
  ret i32 %120
}