; Function Attrs: nofree nosync nounwind memory(readwrite, inaccessiblemem: none) uwtable
define i32 @Gia_ManCheckUnate_rec(ptr noundef %0, i32 noundef %1) local_unnamed_addr #2 {
  %3 = getelementptr inbounds nuw i8, ptr %0, i64 176
  %4 = load i32, ptr %3, align 8, !tbaa !50
  %5 = getelementptr inbounds nuw i8, ptr %0, i64 616
  %6 = load ptr, ptr %5, align 8, !tbaa !51
  %7 = sext i32 %1 to i64
  %8 = getelementptr inbounds i32, ptr %6, i64 %7
  %9 = load i32, ptr %8, align 4, !tbaa !31
  %10 = sub nsw i32 %4, %9
  %11 = icmp slt i32 %10, 4
  br i1 %11, label %46, label %12

12:                                               ; preds = %2
  %13 = getelementptr i8, ptr %0, i64 32
  %.val = load ptr, ptr %13, align 8, !tbaa !41
  %14 = getelementptr inbounds %struct.Gia_Obj_t_, ptr %.val, i64 %7
  %15 = add nsw i32 %4, -3
  store i32 %15, ptr %8, align 4, !tbaa !31
  %.val47 = load i64, ptr %14, align 4
  %16 = and i64 %.val47, 2684354559
  %narrow.i.not = icmp eq i64 %16, 2684354559
  br i1 %narrow.i.not, label %46, label %17

17:                                               ; preds = %12
  %18 = trunc i64 %.val47 to i32
  %19 = and i32 %18, 536870911
  %20 = sub nsw i32 %1, %19
  %21 = tail call i32 @Gia_ManCheckUnate_rec(ptr noundef nonnull %0, i32 noundef %20)
  %.val44 = load i64, ptr %14, align 4
  %22 = lshr i64 %.val44, 32
  %23 = trunc nuw i64 %22 to i32
  %24 = and i32 %23, 536870911
  %25 = sub nsw i32 %1, %24
  %26 = tail call i32 @Gia_ManCheckUnate_rec(ptr noundef nonnull %0, i32 noundef %25)
  %27 = add i32 %21, -1
  %or.cond = icmp ult i32 %27, 2
  br i1 %or.cond, label %28, label %31

28:                                               ; preds = %17
  %.val45 = load i64, ptr %14, align 4
  %29 = and i64 %.val45, 536870912
  %.not40 = icmp eq i64 %29, 0
  %30 = xor i32 %21, 3
  %spec.select = select i1 %.not40, i32 %21, i32 %30
  br label %31

31:                                               ; preds = %28, %17
  %32 = phi i32 [ %21, %17 ], [ %spec.select, %28 ]
  %33 = add i32 %26, -1
  %or.cond3 = icmp ult i32 %33, 2
  br i1 %or.cond3, label %34, label %37

34:                                               ; preds = %31
  %.val46 = load i64, ptr %14, align 4
  %35 = and i64 %.val46, 2305843009213693952
  %.not41 = icmp eq i64 %35, 0
  %36 = xor i32 %26, 3
  %spec.select42 = select i1 %.not41, i32 %26, i32 %36
  br label %37

37:                                               ; preds = %34, %31
  %38 = phi i32 [ %26, %31 ], [ %spec.select42, %34 ]
  %39 = load i32, ptr %3, align 8, !tbaa !50
  %40 = and i32 %38, %32
  %41 = sub nsw i32 %39, %40
  %42 = load ptr, ptr %5, align 8, !tbaa !51
  %43 = getelementptr inbounds i32, ptr %42, i64 %7
  store i32 %41, ptr %43, align 4, !tbaa !31
  %44 = load i32, ptr %3, align 8, !tbaa !50
  %45 = sub nsw i32 %44, %41
  br label %46

46:                                               ; preds = %12, %2, %37
  %.0 = phi i32 [ %45, %37 ], [ %10, %2 ], [ 3, %12 ]
  ret i32 %.0
}